target datalayout = "e-m:e-p270:32:32-p271:32:32-p272:64:64-i64:64-i128:128-f80:128-n8:16:32:64-S128"
target triple = "x86_64-pc-linux-gnu"

; Function Attrs: inlinehint nounwind uwtable
define internal i32 @PixelsAreSimilar(i32 noundef %0, i32 noundef %1, i32 noundef %2) #4 {
  %4 = alloca i32, align 4
  %5 = alloca i32, align 4
  %6 = alloca i32, align 4
  %7 = alloca i32, align 4
  %8 = alloca i32, align 4
  %9 = alloca i32, align 4
  %10 = alloca i32, align 4
  %11 = alloca i32, align 4
  %12 = alloca i32, align 4
  %13 = alloca i32, align 4
  %14 = alloca i32, align 4
  store i32 %0, ptr %4, align 4, !tbaa !8
  store i32 %1, ptr %5, align 4, !tbaa !8
  store i32 %2, ptr %6, align 4, !tbaa !8
  call void @llvm.lifetime.start.p0(i64 4, ptr %7) #8
  %15 = load i32, ptr %4, align 4, !tbaa !8
  %16 = lshr i32 %15, 24
  %17 = and i32 %16, 255
  store i32 %17, ptr %7, align 4, !tbaa !8
  call void @llvm.lifetime.start.p0(i64 4, ptr %8) #8
  %18 = load i32, ptr %4, align 4, !tbaa !8
  %19 = lshr i32 %18, 16
  %20 = and i32 %19, 255
  store i32 %20, ptr %8, align 4, !tbaa !8
  call void @llvm.lifetime.start.p0(i64 4, ptr %9) #8
  %21 = load i32, ptr %4, align 4, !tbaa !8
  %22 = lshr i32 %21, 8
  %23 = and i32 %22, 255
  store i32 %23, ptr %9, align 4, !tbaa !8
  call void @llvm.lifetime.start.p0(i64 4, ptr %10) #8
  %24 = load i32, ptr %4, align 4, !tbaa !8
  %25 = lshr i32 %24, 0
  %26 = and i32 %25, 255
  store i32 %26, ptr %10, align 4, !tbaa !8
  call void @llvm.lifetime.start.p0(i64 4, ptr %11) #8
  %27 = load i32, ptr %5, align 4, !tbaa !8
  %28 = lshr i32 %27, 24
  %29 = and i32 %28, 255
  store i32 %29, ptr %11, align 4, !tbaa !8
  call void @llvm.lifetime.start.p0(i64 4, ptr %12) #8
  %30 = load i32, ptr %5, align 4, !tbaa !8
  %31 = lshr i32 %30, 16
  %32 = and i32 %31, 255
  store i32 %32, ptr %12, align 4, !tbaa !8
  call void @llvm.lifetime.start.p0(i64 4, ptr %13) #8
  %33 = load i32, ptr %5, align 4, !tbaa !8
  %34 = lshr i32 %33, 8
  %35 = and i32 %34, 255
  store i32 %35, ptr %13, align 4, !tbaa !8
  call void @llvm.lifetime.start.p0(i64 4, ptr %14) #8
  %36 = load i32, ptr %5, align 4, !tbaa !8
  %37 = lshr i32 %36, 0
  %38 = and i32 %37, 255
  store i32 %38, ptr %14, align 4, !tbaa !8
  %39 = load i32, ptr %7, align 4, !tbaa !8
  %40 = load i32, ptr %11, align 4, !tbaa !8
  %41 = icmp eq i32 %39, %40
  br i1 %41, label %42, label %72

42:                                               ; preds = %3
  %43 = load i32, ptr %8, align 4, !tbaa !8
  %44 = load i32, ptr %12, align 4, !tbaa !8
  %45 = sub nsw i32 %43, %44
  %46 = call i32 @llvm.abs.i32(i32 %45, i1 true)
  %47 = load i32, ptr %11, align 4, !tbaa !8
  %48 = mul nsw i32 %46, %47
  %49 = load i32, ptr %6, align 4, !tbaa !8
  %50 = mul nsw i32 %49, 255
  %51 = icmp sle i32 %48, %50
  br i1 %51, label %52, label %72

52:                                               ; preds = %42
  %53 = load i32, ptr %9, align 4, !tbaa !8
  %54 = load i32, ptr %13, align 4, !tbaa !8
  %55 = sub nsw i32 %53, %54
  %56 = call i32 @llvm.abs.i32(i32 %55, i1 true)
  %57 = load i32, ptr %11, align 4, !tbaa !8
  %58 = mul nsw i32 %56, %57
  %59 = load i32, ptr %6, align 4, !tbaa !8
  %60 = mul nsw i32 %59, 255
  %61 = icmp sle i32 %58, %60
  br i1 %61, label %62, label %72

62:                                               ; preds = %52
  %63 = load i32, ptr %10, align 4, !tbaa !8
  %64 = load i32, ptr %14, align 4, !tbaa !8
  %65 = sub nsw i32 %63, %64
  %66 = call i32 @llvm.abs.i32(i32 %65, i1 true)
  %67 = load i32, ptr %11, align 4, !tbaa !8
  %68 = mul nsw i32 %66, %67
  %69 = load i32, ptr %6, align 4, !tbaa !8
  %70 = mul nsw i32 %69, 255
  %71 = icmp sle i32 %68, %70
  br label %72

72:                                               ; preds = %62, %52, %42, %3
  %73 = phi i1 [ false, %52 ], [ false, %42 ], [ false, %3 ], [ %71, %62 ]
  %74 = zext i1 %73 to i32
  call void @llvm.lifetime.end.p0(i64 4, ptr %14) #8
  call void @llvm.lifetime.end.p0(i64 4, ptr %13) #8
  call void @llvm.lifetime.end.p0(i64 4, ptr %12) #8
  call void @llvm.lifetime.end.p0(i64 4, ptr %11) #8
  call void @llvm.lifetime.end.p0(i64 4, ptr %10) #8
  call void @llvm.lifetime.end.p0(i64 4, ptr %9) #8
  call void @llvm.lifetime.end.p0(i64 4, ptr %8) #8
  call void @llvm.lifetime.end.p0(i64 4, ptr %7) #8
  ret i32 %74
}

; Function Attrs: inlinehint nounwind uwtable
define internal i32 @ComparePixelsLossy(ptr noundef %0, i32 noundef %1, ptr noundef %2, i32 noundef %3, i32 noundef %4, i32 noundef %5) #4 {
  %7 = alloca i32, align 4
  %8 = alloca ptr, align 8
  %9 = alloca i32, align 4
  %10 = alloca ptr, align 8
  %11 = alloca i32, align 4
  %12 = alloca i32, align 4
  %13 = alloca i32, align 4
  store ptr %0, ptr %8, align 8, !tbaa !68
  store i32 %1, ptr %9, align 4, !tbaa !8
  store ptr %2, ptr %10, align 8, !tbaa !68
  store i32 %3, ptr %11, align 4, !tbaa !8
  store i32 %4, ptr %12, align 4, !tbaa !8
  store i32 %5, ptr %13, align 4, !tbaa !8
  br label %14

14:                                               ; preds = %27, %6
  %15 = load i32, ptr %12, align 4, !tbaa !8
  %16 = add nsw i32 %15, -1
  store i32 %16, ptr %12, align 4, !tbaa !8
  %17 = icmp sgt i32 %15, 0
  br i1 %17, label %18, label %36

18:                                               ; preds = %14
  %19 = load ptr, ptr %8, align 8, !tbaa !68
  %20 = load i32, ptr %19, align 4, !tbaa !8
  %21 = load ptr, ptr %10, align 8, !tbaa !68
  %22 = load i32, ptr %21, align 4, !tbaa !8
  %23 = load i32, ptr %13, align 4, !tbaa !8
  %24 = call i32 @PixelsAreSimilar(i32 noundef %20, i32 noundef %22, i32 noundef %23)
  %25 = icmp ne i32 %24, 0
  br i1 %25, label %27, label %26

26:                                               ; preds = %18
  store i32 0, ptr %7, align 4
  br label %37

27:                                               ; preds = %18
  %28 = load i32, ptr %9, align 4, !tbaa !8
  %29 = load ptr, ptr %8, align 8, !tbaa !68
  %30 = sext i32 %28 to i64
  %31 = getelementptr inbounds i32, ptr %29, i64 %30
  store ptr %31, ptr %8, align 8, !tbaa !68
  %32 = load i32, ptr %11, align 4, !tbaa !8
  %33 = load ptr, ptr %10, align 8, !tbaa !68
  %34 = sext i32 %32 to i64
  %35 = getelementptr inbounds i32, ptr %33, i64 %34
  store ptr %35, ptr %10, align 8, !tbaa !68
  br label %14, !llvm.loop !126

36:                                               ; preds = %14
  store i32 1, ptr %7, align 4
  br label %37

37:                                               ; preds = %36, %26
  %38 = load i32, ptr %7, align 4
  ret i32 %38
}