; Function Attrs: inlinehint nofree norecurse nosync nounwind memory(argmem: read) uwtable
define internal range(i32 0, 2) i32 @ComparePixelsLossy(ptr noundef readonly captures(none) %0, i32 noundef %1, ptr noundef readonly captures(none) %2, i32 noundef %3, i32 noundef %4, i32 noundef %5) unnamed_addr #9 {
  %7 = icmp sgt i32 %4, 0
  br i1 %7, label %.lr.ph, label %PixelsAreSimilar.exit.thread

.lr.ph:                                           ; preds = %6
  %8 = mul nsw i32 %5, 255
  %9 = sext i32 %1 to i64
  %10 = sext i32 %3 to i64
  br label %11

11:                                               ; preds = %.lr.ph, %39
  %.in = phi i32 [ %4, %.lr.ph ], [ %12, %39 ]
  %.0914 = phi ptr [ %0, %.lr.ph ], [ %40, %39 ]
  %.01013 = phi ptr [ %2, %.lr.ph ], [ %41, %39 ]
  %12 = add nsw i32 %.in, -1
  %13 = load i32, ptr %.0914, align 4, !tbaa !16
  %14 = load i32, ptr %.01013, align 4, !tbaa !16
  %15 = lshr i32 %13, 24
  %16 = lshr i32 %13, 8
  %17 = and i32 %16, 255
  %18 = and i32 %13, 255
  %19 = lshr i32 %14, 24
  %20 = lshr i32 %14, 8
  %21 = and i32 %20, 255
  %22 = and i32 %14, 255
  %23 = icmp eq i32 %15, %19
  br i1 %23, label %24, label %PixelsAreSimilar.exit.thread

24:                                               ; preds = %11
  %25 = lshr i32 %14, 16
  %26 = and i32 %25, 255
  %27 = lshr i32 %13, 16
  %28 = and i32 %27, 255
  %29 = sub nsw i32 %28, %26
  %30 = tail call i32 @llvm.abs.i32(i32 %29, i1 true)
  %31 = mul nuw nsw i32 %30, %15
  %.not.i = icmp sgt i32 %31, %8
  br i1 %.not.i, label %PixelsAreSimilar.exit.thread, label %32

32:                                               ; preds = %24
  %33 = sub nsw i32 %17, %21
  %34 = tail call i32 @llvm.abs.i32(i32 %33, i1 true)
  %35 = mul nuw nsw i32 %34, %15
  %.not23.i = icmp samesign ugt i32 %35, %8
  br i1 %.not23.i, label %PixelsAreSimilar.exit.thread, label %PixelsAreSimilar.exit

PixelsAreSimilar.exit:                            ; preds = %32
  %36 = sub nsw i32 %18, %22
  %37 = tail call i32 @llvm.abs.i32(i32 %36, i1 true)
  %38 = mul nuw nsw i32 %37, %15
  %.not12 = icmp samesign ugt i32 %38, %8
  br i1 %.not12, label %PixelsAreSimilar.exit.thread, label %39

39:                                               ; preds = %PixelsAreSimilar.exit
  %40 = getelementptr inbounds i32, ptr %.0914, i64 %9
  %41 = getelementptr inbounds i32, ptr %.01013, i64 %10
  %42 = icmp samesign ugt i32 %.in, 1
  br i1 %42, label %11, label %PixelsAreSimilar.exit.thread, !llvm.loop !124

PixelsAreSimilar.exit.thread:                     ; preds = %PixelsAreSimilar.exit, %39, %32, %24, %11, %6
  %.0 = phi i32 [ 1, %6 ], [ 0, %11 ], [ 0, %24 ], [ 0, %32 ], [ 1, %39 ], [ 0, %PixelsAreSimilar.exit ]
  ret i32 %.0
}